(dp0
S'engine'
p1
S'pdflatex'
p2
sS'packages'
p3
c__builtin__
set
p4
((lp5
S'mathrsfs'
p6
aS'subfigure'
p7
aS'titlesec'
p8
aS'amsmath'
p9
aS'multirow'
p10
aS'amsthm'
p11
aS'graphicx'
p12
aS'natbib'
p13
aS'amssymb'
p14
atp15
Rp16
sS'files_with_guttermarks'
p17
g4
((lp18
S'ACME2015-extendedAbstract.tex'
p19
aS'/Volumes/HardDrive/Users/mark/Desktop/PhD/ACME2015-extendedAbstractLatex/ACME2015-extendedAbstract.tex'
p20
aS'/Volumes/HardDrive/Users/mark/Desktop/PhD/ACME2015-extendedAbstractLatex/./ACME2015-extendedAbstract.tex'
p21
aS'/usr/local/texlive/2012/texmf-dist/tex/latex/caption/subcaption.sty'
p22
atp23
Rp24
sS'synctex'
p25
I01
s.